; Function Attrs: mustprogress uwtable
define hidden i32 @mbedtls_entropy_func(ptr noundef %0, ptr noundef writeonly captures(none) %1, i64 noundef %2) local_unnamed_addr #0 {
  %4 = alloca [128 x i8], align 16
  %5 = alloca i64, align 8
  %6 = alloca [32 x i8], align 16
  call void @llvm.lifetime.start.p0(i64 32, ptr nonnull %6) #6
  %7 = icmp ugt i64 %2, 32
  br i1 %7, label %68, label %.preheader55

.preheader55:                                     ; preds = %3
  %8 = getelementptr inbounds nuw i8, ptr %0, i64 112
  %9 = getelementptr inbounds nuw i8, ptr %0, i64 120
  br label %10

10:                                               ; preds = %.preheader55, %.backedge
  %11 = phi i32 [ 1, %.preheader55 ], [ %53, %.backedge ]
  call void @llvm.lifetime.start.p0(i64 128, ptr nonnull %4) #6
  call void @llvm.lifetime.start.p0(i64 8, ptr nonnull %5) #6
  %12 = load i32, ptr %8, align 8, !tbaa !3
  %13 = icmp eq i32 %12, 0
  br i1 %13, label %_ZL23entropy_gather_internalP23mbedtls_entropy_context.exit.thread, label %.preheader.i

.preheader.i:                                     ; preds = %10
  %14 = icmp sgt i32 %12, 0
  br i1 %14, label %.lr.ph.i, label %_ZL23entropy_gather_internalP23mbedtls_entropy_context.exit.thread51

.lr.ph.i:                                         ; preds = %.preheader.i, %33
  %indvars.iv.i = phi i64 [ %indvars.iv.next.i, %33 ], [ 0, %.preheader.i ]
  %.037.i = phi i32 [ %spec.select.i, %33 ], [ 0, %.preheader.i ]
  %15 = getelementptr inbounds nuw [20 x %struct.mbedtls_entropy_source_state], ptr %9, i64 0, i64 %indvars.iv.i
  %16 = getelementptr inbounds nuw i8, ptr %15, i64 32
  %17 = load i32, ptr %16, align 8, !tbaa !16
  %18 = icmp eq i32 %17, 1
  %spec.select.i = select i1 %18, i32 1, i32 %.037.i
  store i64 0, ptr %5, align 8, !tbaa !18
  %19 = load ptr, ptr %15, align 8, !tbaa !10
  %20 = getelementptr inbounds nuw i8, ptr %15, i64 8
  %21 = load ptr, ptr %20, align 8, !tbaa !14
  %22 = call noundef i32 %19(ptr noundef %21, ptr noundef nonnull %4, i64 noundef 128, ptr noundef nonnull %5)
  %.not.i = icmp eq i32 %22, 0
  br i1 %.not.i, label %23, label %_ZL23entropy_gather_internalP23mbedtls_entropy_context.exit.thread51

23:                                               ; preds = %.lr.ph.i
  %24 = load i64, ptr %5, align 8, !tbaa !18
  %.not26.i = icmp eq i64 %24, 0
  br i1 %.not26.i, label %33, label %25

25:                                               ; preds = %23
  %26 = trunc i64 %indvars.iv.i to i8
  %27 = call fastcc noundef i32 @_ZL14entropy_updateP23mbedtls_entropy_contexthPKhm(ptr noundef nonnull %0, i8 noundef zeroext %26, ptr noundef nonnull %4, i64 noundef %24)
  %.not27.i = icmp eq i32 %27, 0
  br i1 %.not27.i, label %28, label %_ZL23entropy_gather_internalP23mbedtls_entropy_context.exit.thread

28:                                               ; preds = %25
  %29 = load i64, ptr %5, align 8, !tbaa !18
  %30 = getelementptr inbounds nuw i8, ptr %15, i64 16
  %31 = load i64, ptr %30, align 8, !tbaa !19
  %32 = add i64 %31, %29
  store i64 %32, ptr %30, align 8, !tbaa !19
  br label %33

33:                                               ; preds = %28, %23
  %indvars.iv.next.i = add nuw nsw i64 %indvars.iv.i, 1
  %34 = load i32, ptr %8, align 8, !tbaa !3
  %35 = sext i32 %34 to i64
  %36 = icmp slt i64 %indvars.iv.next.i, %35
  br i1 %36, label %.lr.ph.i, label %._crit_edge.loopexit.i, !llvm.loop !20

._crit_edge.loopexit.i:                           ; preds = %33
  %37 = icmp eq i32 %spec.select.i, 0
  br i1 %37, label %_ZL23entropy_gather_internalP23mbedtls_entropy_context.exit.thread51, label %_ZL23entropy_gather_internalP23mbedtls_entropy_context.exit

_ZL23entropy_gather_internalP23mbedtls_entropy_context.exit.thread: ; preds = %10, %25
  %.020.i.ph = phi i32 [ %27, %25 ], [ -64, %10 ]
  call void @llvm.lifetime.end.p0(i64 8, ptr nonnull %5) #6
  call void @llvm.lifetime.end.p0(i64 128, ptr nonnull %4) #6
  br label %.loopexit

_ZL23entropy_gather_internalP23mbedtls_entropy_context.exit.thread51: ; preds = %.preheader.i, %._crit_edge.loopexit.i, %.lr.ph.i
  %.119.i.ph = phi i32 [ %22, %.lr.ph.i ], [ -61, %._crit_edge.loopexit.i ], [ -61, %.preheader.i ]
  call void @mbedtls_platform_zeroize(ptr noundef nonnull %4, i64 noundef 128)
  call void @llvm.lifetime.end.p0(i64 8, ptr nonnull %5) #6
  call void @llvm.lifetime.end.p0(i64 128, ptr nonnull %4) #6
  br label %.loopexit

_ZL23entropy_gather_internalP23mbedtls_entropy_context.exit: ; preds = %._crit_edge.loopexit.i
  call void @mbedtls_platform_zeroize(ptr noundef nonnull %4, i64 noundef 128)
  call void @llvm.lifetime.end.p0(i64 8, ptr nonnull %5) #6
  call void @llvm.lifetime.end.p0(i64 128, ptr nonnull %4) #6
  %38 = load i32, ptr %8, align 8, !tbaa !3
  %39 = icmp sgt i32 %38, 0
  br i1 %39, label %.lr.ph.preheader, label %.backedge

.lr.ph.preheader:                                 ; preds = %_ZL23entropy_gather_internalP23mbedtls_entropy_context.exit
  %wide.trip.count = zext nneg i32 %38 to i64
  br label %.lr.ph

.lr.ph:                                           ; preds = %.lr.ph.preheader, %.lr.ph
  %indvars.iv = phi i64 [ 0, %.lr.ph.preheader ], [ %indvars.iv.next, %.lr.ph ]
  %.03170 = phi i64 [ 0, %.lr.ph.preheader ], [ %spec.select54, %.lr.ph ]
  %.03269 = phi i32 [ 1, %.lr.ph.preheader ], [ %spec.select, %.lr.ph ]
  %40 = getelementptr inbounds nuw [20 x %struct.mbedtls_entropy_source_state], ptr %9, i64 0, i64 %indvars.iv
  %41 = getelementptr inbounds nuw i8, ptr %40, i64 16
  %42 = load i64, ptr %41, align 8, !tbaa !19
  %43 = getelementptr inbounds nuw i8, ptr %40, i64 24
  %44 = load i64, ptr %43, align 8, !tbaa !15
  %45 = icmp ult i64 %42, %44
  %spec.select = select i1 %45, i32 0, i32 %.03269
  %46 = getelementptr inbounds nuw i8, ptr %40, i64 32
  %47 = load i32, ptr %46, align 8, !tbaa !16
  %48 = icmp eq i32 %47, 1
  %49 = select i1 %48, i64 %42, i64 0
  %spec.select54 = add i64 %49, %.03170
  %indvars.iv.next = add nuw nsw i64 %indvars.iv, 1
  %exitcond.not = icmp eq i64 %indvars.iv.next, %wide.trip.count
  br i1 %exitcond.not, label %._crit_edge.loopexit, label %.lr.ph, !llvm.loop !22

._crit_edge.loopexit:                             ; preds = %.lr.ph
  %50 = icmp eq i32 %spec.select, 0
  %51 = icmp ult i64 %spec.select54, 32
  %52 = select i1 %50, i1 true, i1 %51
  br i1 %52, label %.backedge, label %54

.backedge:                                        ; preds = %_ZL23entropy_gather_internalP23mbedtls_entropy_context.exit, %._crit_edge.loopexit
  %53 = add nuw nsw i32 %11, 1
  %exitcond83 = icmp eq i32 %11, 257
  br i1 %exitcond83, label %.loopexit, label %10, !llvm.loop !23

54:                                               ; preds = %._crit_edge.loopexit
  call void @llvm.memset.p0.i64(ptr noundef nonnull align 16 dereferenceable(32) %6, i8 0, i64 32, i1 false)
  %55 = getelementptr inbounds nuw i8, ptr %0, i64 4
  %56 = call i32 @mbedtls_sha256_finish(ptr noundef nonnull %55, ptr noundef nonnull %6)
  %.not44 = icmp eq i32 %56, 0
  br i1 %.not44, label %57, label %.loopexit

57:                                               ; preds = %54
  call void @mbedtls_sha256_free(ptr noundef nonnull %55)
  call void @mbedtls_sha256_init(ptr noundef nonnull %55)
  %58 = call i32 @mbedtls_sha256_starts(ptr noundef nonnull %55, i32 noundef 0)
  %.not45 = icmp eq i32 %58, 0
  br i1 %.not45, label %59, label %.loopexit

59:                                               ; preds = %57
  %60 = call i32 @mbedtls_sha256_update(ptr noundef nonnull %55, ptr noundef nonnull %6, i64 noundef 32)
  %.not46 = icmp eq i32 %60, 0
  br i1 %.not46, label %61, label %.loopexit

61:                                               ; preds = %59
  %62 = call i32 @mbedtls_sha256(ptr noundef nonnull %6, i64 noundef 32, ptr noundef nonnull %6, i32 noundef 0)
  %.not47 = icmp eq i32 %62, 0
  br i1 %.not47, label %.preheader, label %.loopexit

.preheader:                                       ; preds = %61
  %63 = load i32, ptr %8, align 8, !tbaa !3
  %64 = icmp sgt i32 %63, 0
  br i1 %64, label %.lr.ph73, label %._crit_edge74

.lr.ph73:                                         ; preds = %.preheader
  %65 = getelementptr i8, ptr %0, i64 136
  %wide.trip.count87 = zext nneg i32 %63 to i64
  br label %66

66:                                               ; preds = %.lr.ph73, %66
  %indvars.iv84 = phi i64 [ 0, %.lr.ph73 ], [ %indvars.iv.next85, %66 ]
  %.idx = mul nuw nsw i64 %indvars.iv84, 40
  %67 = getelementptr i8, ptr %65, i64 %.idx
  store i64 0, ptr %67, align 8, !tbaa !19
  %indvars.iv.next85 = add nuw nsw i64 %indvars.iv84, 1
  %exitcond88.not = icmp eq i64 %indvars.iv.next85, %wide.trip.count87
  br i1 %exitcond88.not, label %._crit_edge74, label %66, !llvm.loop !24

._crit_edge74:                                    ; preds = %66, %.preheader
  call void @llvm.memcpy.p0.p0.i64(ptr align 1 %1, ptr nonnull align 16 %6, i64 %2, i1 false)
  br label %.loopexit

.loopexit:                                        ; preds = %.backedge, %_ZL23entropy_gather_internalP23mbedtls_entropy_context.exit.thread51, %_ZL23entropy_gather_internalP23mbedtls_entropy_context.exit.thread, %61, %59, %57, %54, %._crit_edge74
  %.037 = phi i32 [ %56, %54 ], [ %58, %57 ], [ %60, %59 ], [ %62, %61 ], [ 0, %._crit_edge74 ], [ %.020.i.ph, %_ZL23entropy_gather_internalP23mbedtls_entropy_context.exit.thread ], [ %.119.i.ph, %_ZL23entropy_gather_internalP23mbedtls_entropy_context.exit.thread51 ], [ -60, %.backedge ]
  call void @mbedtls_platform_zeroize(ptr noundef nonnull %6, i64 noundef 32)
  br label %68

68:                                               ; preds = %3, %.loopexit
  %.0 = phi i32 [ %.037, %.loopexit ], [ -60, %3 ]
  call void @llvm.lifetime.end.p0(i64 32, ptr nonnull %6) #6
  ret i32 %.0
}